Certificate:
    Data:
        Version: 3 (0x2)
        Serial Number: 1 (0x1)
    Signature Algorithm: sha256WithRSAEncryption
        Issuer: C=US, ST=CA, L=SanFrancisco, O=Creator, OU=Access, CN=easyvpn/name=EasyRSA/emailAddress=me@myhost.mydomain
        Validity
            Not Before: Sep 12 22:10:34 2015 GMT
            Not After : Sep  9 22:10:34 2025 GMT
        Subject: C=US, ST=CA, L=SanFrancisco, O=Creator, OU=server, CN=easyvpn/name=EasyRSA/emailAddress=me@myhost.mydomain
        Subject Public Key Info:
            Public Key Algorithm: rsaEncryption
                Public-Key: (2048 bit)
                Modulus:
                    00:d4:9b:94:11:ae:cf:cc:9a:e0:b1:41:bf:e8:ca:
                    c1:31:4d:17:c2:ab:ae:6a:c9:56:7e:1c:fa:4c:c5:
                    57:1c:d1:b5:4c:6f:90:7d:66:a4:f2:a1:dd:35:76:
                    d2:1e:1a:5a:4c:49:5a:75:78:37:f7:dd:7c:99:64:
                    3a:c5:8c:9a:43:7f:ba:eb:94:ff:8c:e2:4d:2f:8b:
                    f4:c2:de:6d:40:60:bb:65:67:39:d8:04:c6:d2:ff:
                    02:4e:87:ee:3c:53:a5:f1:5c:69:7f:de:90:c6:56:
                    54:6c:5d:23:7e:b9:be:87:5e:4c:11:26:2e:e0:51:
                    0f:af:2d:82:c0:04:d0:9d:c2:3e:a3:9d:d8:76:0b:
                    65:47:6c:b4:ac:6d:d9:d2:4e:e2:d8:a7:fb:72:95:
                    84:05:8c:82:5d:92:e6:e3:5f:d1:2c:71:d6:12:ca:
                    d3:01:85:9a:5b:e3:8d:5f:ed:be:ec:d4:82:f4:11:
                    d2:fe:a2:be:89:0e:ff:f9:2c:e6:71:67:d8:8e:61:
                    60:44:0b:d2:d0:1d:1c:be:c2:f5:ba:07:94:bf:e7:
                    2d:55:fc:0a:e1:ef:07:6e:56:91:0b:16:e8:8b:35:
                    ad:ff:3e:2a:0e:05:76:3e:21:8d:dc:09:93:22:20:
                    e1:46:32:01:88:91:c4:ca:ce:36:83:c3:f8:e3:b9:
                    8a:2f
                Exponent: 65537 (0x10001)
        X509v3 extensions:
            X509v3 Basic Constraints: 
                CA:FALSE
            Netscape Cert Type: 
                SSL Server
            Netscape Comment: 
                Easy-RSA Generated Server Certificate
            X509v3 Subject Key Identifier: 
                2F:57:47:15:E3:E4:9C:D9:31:79:5F:21:27:00:E1:09:0D:5C:08:29
            X509v3 Authority Key Identifier: 
                keyid:06:EE:FF:60:D2:A4:59:81:E9:9B:94:D3:FB:41:D8:DC:20:BD:98:14
                DirName:/C=US/ST=CA/L=SanFrancisco/O=Creator/OU=Access/CN=easyvpn/name=EasyRSA/emailAddress=me@myhost.mydomain
                serial:A7:DD:37:D3:A1:29:05:DC

            X509v3 Extended Key Usage: 
                TLS Web Server Authentication
            X509v3 Key Usage: 
                Digital Signature, Key Encipherment
    Signature Algorithm: sha256WithRSAEncryption
         a4:96:a5:11:72:31:10:4a:b1:c4:89:22:88:0c:9f:d1:8c:21:
         8f:14:31:a7:c7:10:7c:d2:aa:e3:01:96:d9:5d:6e:3c:7e:42:
         d0:09:c8:0c:93:a1:91:f7:fa:a2:ab:70:b5:92:5f:14:49:cd:
         79:0e:77:f2:7f:f3:33:33:9d:fb:2b:60:56:86:d3:df:50:12:
         20:c4:db:0c:9b:de:97:5b:c0:a5:33:e4:45:c9:84:28:d4:94:
         9b:8c:04:9b:b6:2d:c1:fb:b2:dc:50:9c:1f:b0:40:44:e7:ea:
         32:5a:0a:71:b9:24:66:d2:1d:0b:77:9c:15:4c:9c:c5:25:7d:
         da:17:6a:2c:e9:84:4a:37:b5:58:62:f1:ed:46:bd:f3:a4:a3:
         bf:58:ab:d2:3d:19:ca:32:d6:64:03:bc:aa:c5:35:09:05:21:
         69:69:2e:97:d4:4a:af:ef:1e:af:f3:39:6f:69:08:57:90:ef:
         a5:8b:a8:a0:74:30:02:49:7e:0a:48:a8:ad:0a:35:a9:11:c7:
         0c:b9:00:f2:ff:5f:fb:91:4d:42:8c:92:3f:e2:68:31:6d:93:
         48:cb:7e:88:cc:83:e9:30:2f:81:3c:90:e9:44:10:8b:97:de:
         c6:9d:1d:d3:78:9a:cd:e9:ec:9c:d7:71:83:76:36:70:1b:0b:
         0a:aa:99:18
-----BEGIN CERTIFICATE-----
MIIFITCCBAmgAwIBAgIBATANBgkqhkiG9w0BAQsFADCBmzELMAkGA1UEBhMCVVMx
CzAJBgNVBAgTAkNBMRUwEwYDVQQHEwxTYW5GcmFuY2lzY28xEDAOBgNVBAoTB0Ny
ZWF0b3IxDzANBgNVBAsTBkFjY2VzczEQMA4GA1UEAxMHZWFzeXZwbjEQMA4GA1UE
KRMHRWFzeVJTQTEhMB8GCSqGSIb3DQEJARYSbWVAbXlob3N0Lm15ZG9tYWluMB4X
DTE1MDkxMjIyMTAzNFoXDTI1MDkwOTIyMTAzNFowgZsxCzAJBgNVBAYTAlVTMQsw
CQYDVQQIEwJDQTEVMBMGA1UEBxMMU2FuRnJhbmNpc2NvMRAwDgYDVQQKEwdDcmVh
dG9yMQ8wDQYDVQQLEwZzZXJ2ZXIxEDAOBgNVBAMTB2Vhc3l2cG4xEDAOBgNVBCkT
B0Vhc3lSU0ExITAfBgkqhkiG9w0BCQEWEm1lQG15aG9zdC5teWRvbWFpbjCCASIw
DQYJKoZIhvcNAQEBBQADggEPADCCAQoCggEBANSblBGuz8ya4LFBv+jKwTFNF8Kr
rmrJVn4c+kzFVxzRtUxvkH1mpPKh3TV20h4aWkxJWnV4N/fdfJlkOsWMmkN/uuuU
/4ziTS+L9MLebUBgu2VnOdgExtL/Ak6H7jxTpfFcaX/ekMZWVGxdI365vodeTBEm
LuBRD68tgsAE0J3CPqOd2HYLZUdstKxt2dJO4tin+3KVhAWMgl2S5uNf0Sxx1hLK
0wGFmlvjjV/tvuzUgvQR0v6ivokO//ks5nFn2I5hYEQL0tAdHL7C9boHlL/nLVX8
CuHvB25WkQsW6Is1rf8+Kg4Fdj4hjdwJkyIg4UYyAYiRxMrONoPD+OO5ii8CAwEA
AaOCAWwwggFoMAkGA1UdEwQCMAAwEQYJYIZIAYb4QgEBBAQDAgZAMDQGCWCGSAGG
+EIBDQQnFiVFYXN5LVJTQSBHZW5lcmF0ZWQgU2VydmVyIENlcnRpZmljYXRlMB0G
A1UdDgQWBBQvV0cV4+Sc2TF5XyEnAOEJDVwIKTCB0AYDVR0jBIHIMIHFgBQG7v9g
0qRZgemblNP7QdjcIL2YFKGBoaSBnjCBmzELMAkGA1UEBhMCVVMxCzAJBgNVBAgT
AkNBMRUwEwYDVQQHEwxTYW5GcmFuY2lzY28xEDAOBgNVBAoTB0NyZWF0b3IxDzAN
BgNVBAsTBkFjY2VzczEQMA4GA1UEAxMHZWFzeXZwbjEQMA4GA1UEKRMHRWFzeVJT
QTEhMB8GCSqGSIb3DQEJARYSbWVAbXlob3N0Lm15ZG9tYWluggkAp90306EpBdww
EwYDVR0lBAwwCgYIKwYBBQUHAwEwCwYDVR0PBAQDAgWgMA0GCSqGSIb3DQEBCwUA
A4IBAQCklqURcjEQSrHEiSKIDJ/RjCGPFDGnxxB80qrjAZbZXW48fkLQCcgMk6GR
9/qiq3C1kl8USc15Dnfyf/MzM537K2BWhtPfUBIgxNsMm96XW8ClM+RFyYQo1JSb
jASbti3B+7LcUJwfsEBE5+oyWgpxuSRm0h0Ld5wVTJzFJX3aF2os6YRKN7VYYvHt
Rr3zpKO/WKvSPRnKMtZkA7yqxTUJBSFpaS6X1Eqv7x6v8zlvaQhXkO+li6igdDAC
SX4KSKitCjWpEccMuQDy/1/7kU1CjJI/4mgxbZNIy36IzIPpMC+BPJDpRBCLl97G
nR3TeJrN6eyc13GDdjZwGwsKqpkY
-----END CERTIFICATE-----
